Archive member included because of file (symbol)

c:/utils/gnu tools for arm/4_8-2014q3/bin/../lib/gcc/arm-none-eabi/4.8.4/../../../../arm-none-eabi/lib/armv6-m\libg.a(lib_a-abs.o)
                              ..\obj\DS18B20.o (symbol from plugin) (abs)
c:/utils/gnu tools for arm/4_8-2014q3/bin/../lib/gcc/arm-none-eabi/4.8.4/../../../../arm-none-eabi/lib/armv6-m\libg.a(lib_a-memcpy-stub.o)
                              ..\obj\core.o (symbol from plugin) (memcpy)
c:/utils/gnu tools for arm/4_8-2014q3/bin/../lib/gcc/arm-none-eabi/4.8.4/../../../../arm-none-eabi/lib/armv6-m\libg.a(lib_a-strcasecmp.o)
                              ..\obj\shell.o (symbol from plugin) (strcasecmp)
c:/utils/gnu tools for arm/4_8-2014q3/bin/../lib/gcc/arm-none-eabi/4.8.4/../../../../arm-none-eabi/lib/armv6-m\libg.a(lib_a-strpbrk.o)
                              ..\obj\shell.o (symbol from plugin) (strpbrk)
c:/utils/gnu tools for arm/4_8-2014q3/bin/../lib/gcc/arm-none-eabi/4.8.4/../../../../arm-none-eabi/lib/armv6-m\libg.a(lib_a-strspn.o)
                              ..\obj\shell.o (symbol from plugin) (strspn)
c:/utils/gnu tools for arm/4_8-2014q3/bin/../lib/gcc/arm-none-eabi/4.8.4/../../../../arm-none-eabi/lib/armv6-m\libg.a(lib_a-ctype_.o)
                              c:/utils/gnu tools for arm/4_8-2014q3/bin/../lib/gcc/arm-none-eabi/4.8.4/../../../../arm-none-eabi/lib/armv6-m\libg.a(lib_a-strcasecmp.o) (__ctype_ptr__)
c:/utils/gnu tools for arm/4_8-2014q3/bin/../lib/gcc/arm-none-eabi/4.8.4/armv6-m\libgcc.a(_udivsi3.o)
                              C:\Users\Vera\AppData\Local\Temp\ccxEpyGP.ltrans0.ltrans.o (__aeabi_uidiv)
c:/utils/gnu tools for arm/4_8-2014q3/bin/../lib/gcc/arm-none-eabi/4.8.4/armv6-m\libgcc.a(_dvmd_tls.o)
                              c:/utils/gnu tools for arm/4_8-2014q3/bin/../lib/gcc/arm-none-eabi/4.8.4/armv6-m\libgcc.a(_udivsi3.o) (__aeabi_idiv0)
c:/utils/gnu tools for arm/4_8-2014q3/bin/../lib/gcc/arm-none-eabi/4.8.4/../../../../arm-none-eabi/lib/armv6-m\libg.a(lib_a-memset.o)
                              C:\Users\Vera\AppData\Local\Temp\ccxEpyGP.ltrans3.ltrans.o (memset)

Allocating common symbols
Common symbol       size              file

PutData             0x9b              ..\obj\nRF24_HAL.o (symbol from plugin)
waDHT11_thread      0x1b0             ..\obj\DHT11.o (symbol from plugin)
RTCD1               0x4               ..\obj\rtc_lld.o (symbol from plugin)
shell_terminated    0x4               ..\obj\shell.o (symbol from plugin)
rf_sended_debug     0x1               ..\obj\nRF24_HAL.o (symbol from plugin)
SPID1               0x20              ..\obj\spi_lld.o (symbol from plugin)
extcfg              0xe0              ..\obj\nRF24_HAL.o (symbol from plugin)
ow_buf              0x8               ..\obj\onewire.o (symbol from plugin)
IWDGD               0x8               ..\obj\iwdg_lld.o (symbol from plugin)
Core_EvtListener    0x14              ..\obj\nRF24_HAL.o (symbol from plugin)
waDS18B20           0x1b0             ..\obj\DS18B20.o (symbol from plugin)

Discarded input sections

 .text          0x00000000        0x0 ..\obj\chsem.o (symbol from plugin)
 .data          0x00000000        0x0 C:\Users\Vera\AppData\Local\Temp\ccxEpyGP.ltrans0.ltrans.o
 .data          0x00000000        0x0 C:\Users\Vera\AppData\Local\Temp\ccxEpyGP.ltrans1.ltrans.o
 .data          0x00000000        0x0 C:\Users\Vera\AppData\Local\Temp\ccxEpyGP.ltrans2.ltrans.o
 .bss           0x00000000        0x0 C:\Users\Vera\AppData\Local\Temp\ccxEpyGP.ltrans2.ltrans.o
 .data          0x00000000        0x0 C:\Users\Vera\AppData\Local\Temp\ccxEpyGP.ltrans3.ltrans.o
 .data          0x00000000        0x0 c:/utils/gnu tools for arm/4_8-2014q3/bin/../lib/gcc/arm-none-eabi/4.8.4/armv6-m\libgcc.a(_udivsi3.o)
 .bss           0x00000000        0x0 c:/utils/gnu tools for arm/4_8-2014q3/bin/../lib/gcc/arm-none-eabi/4.8.4/armv6-m\libgcc.a(_udivsi3.o)
 .data          0x00000000        0x0 c:/utils/gnu tools for arm/4_8-2014q3/bin/../lib/gcc/arm-none-eabi/4.8.4/armv6-m\libgcc.a(_dvmd_tls.o)
 .bss           0x00000000        0x0 c:/utils/gnu tools for arm/4_8-2014q3/bin/../lib/gcc/arm-none-eabi/4.8.4/armv6-m\libgcc.a(_dvmd_tls.o)
 .text          0x00000000        0x0 c:/utils/gnu tools for arm/4_8-2014q3/bin/../lib/gcc/arm-none-eabi/4.8.4/../../../../arm-none-eabi/lib/armv6-m\libg.a(lib_a-memset.o)
 .data          0x00000000        0x0 c:/utils/gnu tools for arm/4_8-2014q3/bin/../lib/gcc/arm-none-eabi/4.8.4/../../../../arm-none-eabi/lib/armv6-m\libg.a(lib_a-memset.o)
 .bss           0x00000000        0x0 c:/utils/gnu tools for arm/4_8-2014q3/bin/../lib/gcc/arm-none-eabi/4.8.4/../../../../arm-none-eabi/lib/armv6-m\libg.a(lib_a-memset.o)
 .text          0x00000000        0x0 ..\obj\vectors.o (symbol from plugin)
 .text          0x00000000        0x0 ..\obj\icu.o (symbol from plugin)
 .text          0x00000000        0x0 ..\obj\chdynamic.o (symbol from plugin)
 .text          0x00000000        0x0 ..\obj\st.o (symbol from plugin)
 .text          0x00000000        0x0 ..\obj\serial_usb.o (symbol from plugin)
 .text          0x00000000        0x0 ..\obj\spi.o (symbol from plugin)
 .text          0x00000000        0x0 ..\obj\chmboxes.o (symbol from plugin)
 .text          0x00000000        0x0 ..\obj\i2c.o (symbol from plugin)
 .text          0x00000000        0x0 ..\obj\nRF24_HAL.o (symbol from plugin)
 .text          0x00000000        0x0 ..\obj\core.o (symbol from plugin)
 .text          0x00000000        0x0 ..\obj\FloorHeater.o (symbol from plugin)
 .text          0x00000000        0x0 ..\obj\chheap.o (symbol from plugin)
 .text          0x00000000        0x0 ..\obj\hal_mmcsd.o (symbol from plugin)
 .text          0x00000000        0x0 ..\obj\chvt.o (symbol from plugin)
 .text          0x00000000        0x0 ..\obj\spi_lld.o (symbol from plugin)
 .text          0x00000000        0x0 ..\obj\rtc.o (symbol from plugin)
 .text          0x00000000        0x0 ..\obj\iwdg.o (symbol from plugin)
 .text          0x00000000        0x0 ..\obj\chmempools.o (symbol from plugin)
 .text          0x00000000        0x0 ..\obj\pwm_lld.o (symbol from plugin)
 .text          0x00000000        0x0 ..\obj\chstats.o (symbol from plugin)
 .data          0x00000000        0x0 ..\obj\chcoreasm_v6m.o
 .bss           0x00000000        0x0 ..\obj\chcoreasm_v6m.o
 .text          0x00000000        0x0 ..\obj\pwm.o (symbol from plugin)
 .text          0x00000000        0x0 ..\obj\PIR.o (symbol from plugin)
 .text          0x00000000        0x0 ..\obj\uart.o (symbol from plugin)
 .text          0x00000000        0x0 ..\obj\chevents.o (symbol from plugin)
 .text          0x00000000        0x0 ..\obj\sdc.o (symbol from plugin)
 .text          0x00000000        0x0 ..\obj\hal_queues.o (symbol from plugin)
 .text          0x00000000        0x0 ..\obj\DS18B20.o (symbol from plugin)
 .text          0x00000000        0x0 ..\obj\serial_lld.o (symbol from plugin)
 .text          0x00000000        0x0 ..\obj\main.o (symbol from plugin)
 .text          0x00000000        0x0 ..\obj\ext_lld_isr.o (symbol from plugin)
 .text          0x00000000        0x0 ..\obj\usb.o (symbol from plugin)
 .text          0x00000000        0x0 ..\obj\board.o (symbol from plugin)
 .text          0x00000000        0x0 ..\obj\chdebug.o (symbol from plugin)
 .text          0x00000000        0x0 ..\obj\hal_lld.o (symbol from plugin)
 .text          0x00000000        0x0 ..\obj\chsys.o (symbol from plugin)
 .text          0x00000000        0x0 ..\obj\ext_lld.o (symbol from plugin)
 .text          0x00000000        0x0 ..\obj\ext.o (symbol from plugin)
 .text          0x00000000        0x0 ..\obj\can.o (symbol from plugin)
 .text          0x00000000        0x0 ..\obj\radio.o (symbol from plugin)
 .text          0x00000000        0x0 ..\obj\DHT11.o (symbol from plugin)
 .text          0x00000000        0x0 ..\obj\chtm.o (symbol from plugin)
 .text          0x00000000        0x0 ..\obj\dac.o (symbol from plugin)
 .text          0x00000000        0x0 ..\obj\chschd.o (symbol from plugin)
 .text          0x00000000        0x0 ..\obj\iwdg_lld.o (symbol from plugin)
 .text          0x00000000        0x0 ..\obj\cli.o (symbol from plugin)
 .text          0x00000000        0x0 ..\obj\pal_lld.o (symbol from plugin)
 .text          0x00000000        0x0 ..\obj\chregistry.o (symbol from plugin)
 .text          0x00000000        0x0 ..\obj\onewire.o (symbol from plugin)
 .text          0x00000000        0x0 ..\obj\pal.o (symbol from plugin)
 .text          0x00000000        0x0 ..\obj\chmemcore.o (symbol from plugin)
 .text          0x00000000        0x0 ..\obj\chcore_v6m.o (symbol from plugin)
 .text          0x00000000        0x0 ..\obj\stm32_dma.o (symbol from plugin)
 .text          0x00000000        0x0 ..\obj\icu_lld.o (symbol from plugin)
 .text          0x00000000        0x0 ..\obj\adc.o (symbol from plugin)
 .text          0x00000000        0x0 ..\obj\chmtx.o (symbol from plugin)
 .text          0x00000000        0x0 ..\obj\i2s.o (symbol from plugin)
 .text          0x00000000        0x0 ..\obj\shell.o (symbol from plugin)
 .text          0x00000000        0x0 ..\obj\chprintf.o (symbol from plugin)
 .text          0x00000000        0x0 ..\obj\gpt.o (symbol from plugin)
 .text          0x00000000        0x0 ..\obj\rtc_lld.o (symbol from plugin)
 .text          0x00000000        0x0 ..\obj\hal.o (symbol from plugin)
 .text          0x00000000        0x0 ..\obj\chthreads.o (symbol from plugin)
 .text          0x00000000        0x0 ..\obj\lcd.o (symbol from plugin)
 .text          0x00000000        0x0 ..\obj\chcore.o (symbol from plugin)
 .text          0x00000000        0x0 ..\obj\st_lld.o (symbol from plugin)
 .text          0x00000000        0x0 ..\obj\chmsg.o (symbol from plugin)
 .text          0x00000000        0x0 ..\obj\nvic.o (symbol from plugin)
 .text          0x00000000        0x0 ..\obj\gpt_lld.o (symbol from plugin)
 .text          0x00000000        0x0 ..\obj\serial.o (symbol from plugin)
 .text          0x00000000        0x0 ..\obj\mmc_spi.o (symbol from plugin)
 .text          0x00000000        0x0 ..\obj\adc_lld.o (symbol from plugin)
 .text          0x00000000        0x0 ..\obj\uart_lld.o (symbol from plugin)
 .text          0x00000000        0x0 ..\obj\crt0.o (symbol from plugin)
 .text          0x00000000        0x0 ..\obj\osal.o (symbol from plugin)
 .text          0x00000000        0x0 ..\obj\WatchDog.o (symbol from plugin)
 .text          0x00000000        0x0 ..\obj\RGBW.o (symbol from plugin)
 .text          0x00000000        0x0 ..\obj\chcond.o (symbol from plugin)
 .text          0x00000000        0x0 ..\obj\chqueues.o (symbol from plugin)
 .text          0x00000000        0x0 ..\obj\nRF24.o (symbol from plugin)
 .text          0x00000000        0x0 ..\obj\DHT11_hal.o (symbol from plugin)
 .text          0x00000000        0x0 c:/utils/gnu tools for arm/4_8-2014q3/bin/../lib/gcc/arm-none-eabi/4.8.4/../../../../arm-none-eabi/lib/armv6-m\libg.a(lib_a-abs.o)
 .data          0x00000000        0x0 c:/utils/gnu tools for arm/4_8-2014q3/bin/../lib/gcc/arm-none-eabi/4.8.4/../../../../arm-none-eabi/lib/armv6-m\libg.a(lib_a-abs.o)
 .bss           0x00000000        0x0 c:/utils/gnu tools for arm/4_8-2014q3/bin/../lib/gcc/arm-none-eabi/4.8.4/../../../../arm-none-eabi/lib/armv6-m\libg.a(lib_a-abs.o)
 .text          0x00000000        0x0 c:/utils/gnu tools for arm/4_8-2014q3/bin/../lib/gcc/arm-none-eabi/4.8.4/../../../../arm-none-eabi/lib/armv6-m\libg.a(lib_a-memcpy-stub.o)
 .data          0x00000000        0x0 c:/utils/gnu tools for arm/4_8-2014q3/bin/../lib/gcc/arm-none-eabi/4.8.4/../../../../arm-none-eabi/lib/armv6-m\libg.a(lib_a-memcpy-stub.o)
 .bss           0x00000000        0x0 c:/utils/gnu tools for arm/4_8-2014q3/bin/../lib/gcc/arm-none-eabi/4.8.4/../../../../arm-none-eabi/lib/armv6-m\libg.a(lib_a-memcpy-stub.o)
 .text          0x00000000        0x0 c:/utils/gnu tools for arm/4_8-2014q3/bin/../lib/gcc/arm-none-eabi/4.8.4/../../../../arm-none-eabi/lib/armv6-m\libg.a(lib_a-strcasecmp.o)
 .data          0x00000000        0x0 c:/utils/gnu tools for arm/4_8-2014q3/bin/../lib/gcc/arm-none-eabi/4.8.4/../../../../arm-none-eabi/lib/armv6-m\libg.a(lib_a-strcasecmp.o)
 .bss           0x00000000        0x0 c:/utils/gnu tools for arm/4_8-2014q3/bin/../lib/gcc/arm-none-eabi/4.8.4/../../../../arm-none-eabi/lib/armv6-m\libg.a(lib_a-strcasecmp.o)
 .text.strcasecmp
                0x00000000       0x4c c:/utils/gnu tools for arm/4_8-2014q3/bin/../lib/gcc/arm-none-eabi/4.8.4/../../../../arm-none-eabi/lib/armv6-m\libg.a(lib_a-strcasecmp.o)
 .ARM.attributes
                0x00000000       0x2c c:/utils/gnu tools for arm/4_8-2014q3/bin/../lib/gcc/arm-none-eabi/4.8.4/../../../../arm-none-eabi/lib/armv6-m\libg.a(lib_a-strcasecmp.o)
 .debug_frame   0x00000000       0x30 c:/utils/gnu tools for arm/4_8-2014q3/bin/../lib/gcc/arm-none-eabi/4.8.4/../../../../arm-none-eabi/lib/armv6-m\libg.a(lib_a-strcasecmp.o)
 .text          0x00000000        0x0 c:/utils/gnu tools for arm/4_8-2014q3/bin/../lib/gcc/arm-none-eabi/4.8.4/../../../../arm-none-eabi/lib/armv6-m\libg.a(lib_a-strpbrk.o)
 .data          0x00000000        0x0 c:/utils/gnu tools for arm/4_8-2014q3/bin/../lib/gcc/arm-none-eabi/4.8.4/../../../../arm-none-eabi/lib/armv6-m\libg.a(lib_a-strpbrk.o)
 .bss           0x00000000        0x0 c:/utils/gnu tools for arm/4_8-2014q3/bin/../lib/gcc/arm-none-eabi/4.8.4/../../../../arm-none-eabi/lib/armv6-m\libg.a(lib_a-strpbrk.o)
 .text.strpbrk  0x00000000       0x54 c:/utils/gnu tools for arm/4_8-2014q3/bin/../lib/gcc/arm-none-eabi/4.8.4/../../../../arm-none-eabi/lib/armv6-m\libg.a(lib_a-strpbrk.o)
 .ARM.attributes
                0x00000000       0x2c c:/utils/gnu tools for arm/4_8-2014q3/bin/../lib/gcc/arm-none-eabi/4.8.4/../../../../arm-none-eabi/lib/armv6-m\libg.a(lib_a-strpbrk.o)
 .debug_frame   0x00000000       0x2c c:/utils/gnu tools for arm/4_8-2014q3/bin/../lib/gcc/arm-none-eabi/4.8.4/../../../../arm-none-eabi/lib/armv6-m\libg.a(lib_a-strpbrk.o)
 .text          0x00000000        0x0 c:/utils/gnu tools for arm/4_8-2014q3/bin/../lib/gcc/arm-none-eabi/4.8.4/../../../../arm-none-eabi/lib/armv6-m\libg.a(lib_a-strspn.o)
 .data          0x00000000        0x0 c:/utils/gnu tools for arm/4_8-2014q3/bin/../lib/gcc/arm-none-eabi/4.8.4/../../../../arm-none-eabi/lib/armv6-m\libg.a(lib_a-strspn.o)
 .bss           0x00000000        0x0 c:/utils/gnu tools for arm/4_8-2014q3/bin/../lib/gcc/arm-none-eabi/4.8.4/../../../../arm-none-eabi/lib/armv6-m\libg.a(lib_a-strspn.o)
 .text.strspn   0x00000000       0x38 c:/utils/gnu tools for arm/4_8-2014q3/bin/../lib/gcc/arm-none-eabi/4.8.4/../../../../arm-none-eabi/lib/armv6-m\libg.a(lib_a-strspn.o)
 .ARM.attributes
                0x00000000       0x2c c:/utils/gnu tools for arm/4_8-2014q3/bin/../lib/gcc/arm-none-eabi/4.8.4/../../../../arm-none-eabi/lib/armv6-m\libg.a(lib_a-strspn.o)
 .debug_frame   0x00000000       0x2c c:/utils/gnu tools for arm/4_8-2014q3/bin/../lib/gcc/arm-none-eabi/4.8.4/../../../../arm-none-eabi/lib/armv6-m\libg.a(lib_a-strspn.o)
 .text          0x00000000        0x0 c:/utils/gnu tools for arm/4_8-2014q3/bin/../lib/gcc/arm-none-eabi/4.8.4/../../../../arm-none-eabi/lib/armv6-m\libg.a(lib_a-ctype_.o)
 .data          0x00000000        0x0 c:/utils/gnu tools for arm/4_8-2014q3/bin/../lib/gcc/arm-none-eabi/4.8.4/../../../../arm-none-eabi/lib/armv6-m\libg.a(lib_a-ctype_.o)
 .bss           0x00000000        0x0 c:/utils/gnu tools for arm/4_8-2014q3/bin/../lib/gcc/arm-none-eabi/4.8.4/../../../../arm-none-eabi/lib/armv6-m\libg.a(lib_a-ctype_.o)
 .data.__ctype_ptr__
                0x00000000        0x4 c:/utils/gnu tools for arm/4_8-2014q3/bin/../lib/gcc/arm-none-eabi/4.8.4/../../../../arm-none-eabi/lib/armv6-m\libg.a(lib_a-ctype_.o)
 .rodata._ctype_
                0x00000000      0x104 c:/utils/gnu tools for arm/4_8-2014q3/bin/../lib/gcc/arm-none-eabi/4.8.4/../../../../arm-none-eabi/lib/armv6-m\libg.a(lib_a-ctype_.o)
 .ARM.attributes
                0x00000000       0x2c c:/utils/gnu tools for arm/4_8-2014q3/bin/../lib/gcc/arm-none-eabi/4.8.4/../../../../arm-none-eabi/lib/armv6-m\libg.a(lib_a-ctype_.o)

Memory Configuration

Name             Origin             Length             Attributes
flash            0x08000000         0x00004000
ram              0x20000000         0x00001000
*default*        0x00000000         0xffffffff

Linker script and memory map

                0x00000200                __main_stack_size__ = 0x200
                0x00000200                __process_stack_size__ = 0x200
                0x20000000                __ram_start__ = ORIGIN (ram)
                0x00001000                __ram_size__ = 0x1000
                0x20001000                __ram_end__ = (__ram_start__ + __ram_size__)
                0x00000000                . = 0x0
                0x00000000                _text = .

startup         0x08000000       0xc0
 *(vectors)
 vectors        0x08000000       0xc0 C:\Users\Vera\AppData\Local\Temp\ccxEpyGP.ltrans3.ltrans.o
                0x08000000                _vectors

constructors    0x080000c0        0x0
                0x080000c0                PROVIDE (__init_array_start, .)
 *(SORT(.init_array.*))
 *(.init_array)
                0x080000c0                PROVIDE (__init_array_end, .)

destructors     0x080000c0        0x0
                0x080000c0                PROVIDE (__fini_array_start, .)
 *(.fini_array)
 *(SORT(.fini_array.*))
                0x080000c0                PROVIDE (__fini_array_end, .)

.text           0x080000c0     0x3098
 *(.text.startup.*)
 *(.text)
 .text          0x080000c0      0xc20 C:\Users\Vera\AppData\Local\Temp\ccxEpyGP.ltrans0.ltrans.o
                0x080000f4                dht11_timer_handler
                0x08000248                dht11_lld_ext_handler.10959
                0x0800039c                VectorAC
                0x08000554                _dbg_check_unlock
                0x08000578                chSysUnlock.9592
                0x080005a0                chSysUnlock.4902
                0x080005c8                chSysUnlock.10870
                0x080005f0                _dbg_check_lock
                0x08000614                chEvtWaitOneTimeout.constprop.19
                0x08000770                writet.10423
                0x0800077c                write.10429
                0x0800078c                chThdYield
                0x080007d4                Core_Module_Read.constprop.21
                0x0800082c                chThdSleep
                0x08000878                OW_Send.constprop.15
                0x08000a98                PulseLCD
                0x08000ac8                LCD_SendByte
                0x08000b2c                LCD_PutUnsignedInt
                0x08000b88                PrintStr
                0x08000ba4                chThdCreateStatic.constprop.33
                0x08000c90                Core_Module_Register
 .text          0x08000ce0      0xa10 C:\Users\Vera\AppData\Local\Temp\ccxEpyGP.ltrans1.ltrans.o
                0x08000f0c                DHT11_thread
                0x08001260                readt.10412
                0x0800126c                read.10418
                0x08001304                gett.10434
                0x08001310                get.10438
                0x080013b0                putt.10441
                0x080013bc                put.10446
                0x080013cc                Core_Module_Update.constprop.22
                0x080014d8                DS18B20
 .text          0x080016f0      0xb58 C:\Users\Vera\AppData\Local\Temp\ccxEpyGP.ltrans2.ltrans.o
                0x08001738                NMI_Handler
                0x08001748                _idle_thread.7510
                0x0800174c                notify1.6921
                0x0800175c                chSchDoRescheduleAhead
                0x080017b8                _dbg_check_lock_from_isr
                0x080017dc                _dbg_check_unlock_from_isr
                0x08001800                _dbg_check_enter_isr
                0x08001828                _dbg_check_leave_isr
                0x08001850                chDbgCheckClassI
                0x08001870                chSchReadyI
                0x08001918                chSchDoRescheduleBehind
                0x08001968                chEvtSignalI
                0x080019c4                chEvtBroadcastFlagsI
                0x08001a0c                chVTDoSetI
                0x08001adc                chVTDoResetI
                0x08001b4c                chDbgCheckClassS
                0x08001b6c                chSchGoSleepS
                0x08001bb8                chSchGoSleepTimeoutS
                0x08001c0c                chThdEnqueueTimeoutS
                0x08001c34                _port_irq_epilogue
                0x08001c70                Vector80
                0x08001d24                Vector8C
                0x08001d64                Vector64
                0x08001d98                Vector68
                0x08001de8                Vector6C
                0x08001e38                Vector54
                0x08001e7c                Vector58
                0x08001ec0                Vector5C
                0x08001fa8                Vector44
                0x08001fd8                Vector48
                0x08002008                Vector74
                0x08002038                Vector78
                0x080020a4                _pal_lld_setgroupmode
                0x08002168                ext_lld_channel_disable
                0x08002194                ext_lld_channel_enable
                0x08002244                VectorB4
                0x08002244                MemManage_Handler
                0x08002244                VectorA8
                0x08002244                VectorA0
                0x08002244                SVC_Handler
                0x08002244                Vector7C
                0x08002244                VectorB0
                0x08002244                Vector90
                0x08002244                Vector84
                0x08002244                Vector40
                0x08002244                Vector60
                0x08002244                Vector1C
                0x08002244                PendSV_Handler
                0x08002244                Vector24
                0x08002244                Vector70
                0x08002244                SysTick_Handler
                0x08002244                HardFault_Handler
                0x08002244                Vector4C
                0x08002244                Vector94
                0x08002244                VectorBC
                0x08002244                Vector98
                0x08002244                Vector88
                0x08002244                DebugMon_Handler
                0x08002244                BusFault_Handler
                0x08002244                Vector50
                0x08002244                UsageFault_Handler
                0x08002244                Vector28
                0x08002244                VectorB8
                0x08002244                Vector9C
                0x08002244                Vector34
                0x08002244                VectorA4
                0x08002244                Vector20
 *fill*         0x08002248        0x8 
 .text          0x08002250      0x190 C:\Users\Vera\AppData\Local\Temp\ccxEpyGP.ltrans3.ltrans.o
                0x08002250                chSchDoReschedule
                0x08002258                chThdExit
 .text          0x080023e0       0x9c c:/utils/gnu tools for arm/4_8-2014q3/bin/../lib/gcc/arm-none-eabi/4.8.4/armv6-m\libgcc.a(_udivsi3.o)
                0x080023e0                __aeabi_uidiv
                0x080023e0                __udivsi3
                0x08002468                __aeabi_uidivmod
 *fill*         0x0800247c        0x4 
 .text          0x08002480        0x4 c:/utils/gnu tools for arm/4_8-2014q3/bin/../lib/gcc/arm-none-eabi/4.8.4/armv6-m\libgcc.a(_dvmd_tls.o)
                0x08002480                __aeabi_idiv0
                0x08002480                __aeabi_ldiv0
 *fill*         0x08002484        0xc 
 .text          0x08002490       0x4c ..\obj\chcoreasm_v6m.o
                0x08002490                _port_switch
                0x080024b0                _port_thread_start
                0x080024be                _port_switch_from_isr
                0x080024ca                _port_exit_from_isr
 *(.text.*)
 *fill*         0x080024dc        0x4 
 .text.startup  0x080024e0      0x7d0 C:\Users\Vera\AppData\Local\Temp\ccxEpyGP.ltrans3.ltrans.o
                0x080024e0                main
 .text.memset   0x08002cb0       0x9c c:/utils/gnu tools for arm/4_8-2014q3/bin/../lib/gcc/arm-none-eabi/4.8.4/../../../../arm-none-eabi/lib/armv6-m\libg.a(lib_a-memset.o)
                0x08002cb0                memset
 *fill*         0x08002d4c        0x4 
 .text.abs      0x08002d50        0x8 c:/utils/gnu tools for arm/4_8-2014q3/bin/../lib/gcc/arm-none-eabi/4.8.4/../../../../arm-none-eabi/lib/armv6-m\libg.a(lib_a-abs.o)
                0x08002d50                abs
 *fill*         0x08002d58        0x8 
 .text.memcpy   0x08002d60       0x84 c:/utils/gnu tools for arm/4_8-2014q3/bin/../lib/gcc/arm-none-eabi/4.8.4/../../../../arm-none-eabi/lib/armv6-m\libg.a(lib_a-memcpy-stub.o)
                0x08002d60                memcpy
 *(.rodata)
 *fill*         0x08002de4        0xc 
 .rodata        0x08002df0       0x44 C:\Users\Vera\AppData\Local\Temp\ccxEpyGP.ltrans0.ltrans.o
 *fill*         0x08002e34        0xc 
 .rodata        0x08002e40       0xf8 C:\Users\Vera\AppData\Local\Temp\ccxEpyGP.ltrans1.ltrans.o
                0x08002e40                __func__.4472.11008
                0x08002eac                __func__.4472.6371
                0x08002ed4                __func__.4472.6544
                0x08002ee0                __func__.4472.4999
 *fill*         0x08002f38        0x8 
 .rodata        0x08002f40       0x78 C:\Users\Vera\AppData\Local\Temp\ccxEpyGP.ltrans2.ltrans.o
 *fill*         0x08002fb8        0x8 
 .rodata        0x08002fc0       0xb4 C:\Users\Vera\AppData\Local\Temp\ccxEpyGP.ltrans3.ltrans.o
                0x0800305c                __func__.4637.9705
                0x08003068                __func__.4472.9702
 *(.rodata.*)
 *fill*         0x08003074        0xc 
 .rodata.str1.4
                0x08003080       0x1f C:\Users\Vera\AppData\Local\Temp\ccxEpyGP.ltrans0.ltrans.o
                                 0x20 (size before relaxing)
 *fill*         0x0800309f        0x1 
 .rodata.str1.4
                0x080030a0        0x3 C:\Users\Vera\AppData\Local\Temp\ccxEpyGP.ltrans1.ltrans.o
                                  0x4 (size before relaxing)
 *fill*         0x080030a3        0xd 
 .rodata.str1.4
                0x080030b0       0x2e C:\Users\Vera\AppData\Local\Temp\ccxEpyGP.ltrans2.ltrans.o
                                 0x40 (size before relaxing)
 *fill*         0x080030de        0x2 
 .rodata.str1.4
                0x080030e0       0x78 C:\Users\Vera\AppData\Local\Temp\ccxEpyGP.ltrans3.ltrans.o
 *(.glue_7t)
 .glue_7t       0x00000000        0x0 linker stubs
 *(.glue_7)
 .glue_7        0x00000000        0x0 linker stubs
 *(.gcc*)

.vfp11_veneer   0x08003158        0x0
 .vfp11_veneer  0x00000000        0x0 linker stubs

.v4_bx          0x08003158        0x0
 .v4_bx         0x00000000        0x0 linker stubs

.iplt           0x08003158        0x0
 .iplt          0x00000000        0x0 ..\obj\chcoreasm_v6m.o

.rel.dyn        0x08003158        0x0
 .rel.iplt      0x00000000        0x0 ..\obj\chcoreasm_v6m.o

.ARM.extab
 *(.ARM.extab* .gnu.linkonce.armextab.*)

.ARM.exidx      0x08003158        0x0
                0x08003158                PROVIDE (__exidx_start, .)
 *(.ARM.exidx* .gnu.linkonce.armexidx.*)
                0x08003158                PROVIDE (__exidx_end, .)

.eh_frame_hdr
 *(.eh_frame_hdr)

.eh_frame
 *(.eh_frame)

.textalign      0x08003158        0x0
                0x08003158                . = ALIGN (0x8)
                0x08003158                . = ALIGN (0x4)
                0x08003158                _etext = .
                0x08003158                _textdata = _etext

.stacks         0x20000000      0x400
                0x20000000                . = ALIGN (0x8)
                0x20000000                __main_stack_base__ = .
                0x20000200                . = (. + __main_stack_size__)
 *fill*         0x20000000      0x200 
                0x20000200                . = ALIGN (0x8)
                0x20000200                __main_stack_end__ = .
                0x20000200                __process_stack_base__ = .
                0x20000200                __main_thread_stack_base__ = .
                0x20000400                . = (. + __process_stack_size__)
 *fill*         0x20000200      0x200 
                0x20000400                . = ALIGN (0x8)
                0x20000400                __process_stack_end__ = .
                0x20000400                __main_thread_stack_end__ = .

.data           0x20000400        0x0 load address 0x08003158
                0x20000400                . = ALIGN (0x4)
                0x20000400                PROVIDE (_data, .)
 *(.data)
                0x20000400                . = ALIGN (0x4)
 *(.data.*)
                0x20000400                . = ALIGN (0x4)
 *(.ramtext)
                0x20000400                . = ALIGN (0x4)
                0x20000400                PROVIDE (_edata, .)

.igot.plt       0x20000400        0x0 load address 0x08003158
 .igot.plt      0x00000000        0x0 ..\obj\chcoreasm_v6m.o

.bss            0x20000400      0x760 load address 0x08003158
                0x20000400                . = ALIGN (0x4)
                0x20000400                PROVIDE (_bss_start, .)
 *(.bss)
 .bss           0x20000400        0xc C:\Users\Vera\AppData\Local\Temp\ccxEpyGP.ltrans0.ltrans.o
 .bss           0x2000040c       0xe4 C:\Users\Vera\AppData\Local\Temp\ccxEpyGP.ltrans1.ltrans.o
                0x2000045c                GPTD17
                0x2000046c                sensor_handlers
 .bss           0x200004f0      0x670 C:\Users\Vera\AppData\Local\Temp\ccxEpyGP.ltrans3.ltrans.o
                0x200004f0                ch
                0x20000520                dma_isr_redir.8900
                0x20000548                EXTD1
                0x20000550                GPTD14
                0x20000560                PWMD1
                0x2000057c                SD1
                0x20000710                Modules_Array.5033
                0x20000790                Core_BasePtr
                0x200007a8                Inner_Val_DS18B20.6734
                0x20000968                Update_Thread.6702
                0x20000980                Inner_Val_DHT11.8153
                0x20000b60                . = ALIGN (0x4)
 *(.bss.*)
                0x20000b60                . = ALIGN (0x4)
 *(COMMON)
                0x20000b60                . = ALIGN (0x4)
                0x20000b60                PROVIDE (_bss_end, .)
                0x20000b60                PROVIDE (end, .)
                0x20000b60                _end = .
LOAD ..\obj\chsem.o
LOAD C:\Users\Vera\AppData\Local\Temp\ccxEpyGP.ltrans0.ltrans.o
LOAD C:\Users\Vera\AppData\Local\Temp\ccxEpyGP.ltrans1.ltrans.o
LOAD C:\Users\Vera\AppData\Local\Temp\ccxEpyGP.ltrans2.ltrans.o
LOAD C:\Users\Vera\AppData\Local\Temp\ccxEpyGP.ltrans3.ltrans.o
LOAD c:/utils/gnu tools for arm/4_8-2014q3/bin/../lib/gcc/arm-none-eabi/4.8.4/armv6-m\libgcc.a
LOAD c:/utils/gnu tools for arm/4_8-2014q3/bin/../lib/gcc/arm-none-eabi/4.8.4/../../../../arm-none-eabi/lib/armv6-m\libg.a
LOAD c:/utils/gnu tools for arm/4_8-2014q3/bin/../lib/gcc/arm-none-eabi/4.8.4/../../../../arm-none-eabi/lib/armv6-m\libc.a
LOAD ..\obj\vectors.o
LOAD ..\obj\icu.o
LOAD ..\obj\chdynamic.o
LOAD ..\obj\st.o
LOAD ..\obj\serial_usb.o
LOAD ..\obj\spi.o
LOAD ..\obj\chmboxes.o
LOAD ..\obj\i2c.o
LOAD ..\obj\nRF24_HAL.o
LOAD ..\obj\core.o
LOAD ..\obj\FloorHeater.o
LOAD ..\obj\chheap.o
LOAD ..\obj\hal_mmcsd.o
LOAD ..\obj\chvt.o
LOAD ..\obj\spi_lld.o
LOAD ..\obj\rtc.o
LOAD ..\obj\iwdg.o
LOAD ..\obj\chmempools.o
LOAD ..\obj\pwm_lld.o
LOAD ..\obj\chstats.o
LOAD ..\obj\chcoreasm_v6m.o
LOAD ..\obj\pwm.o
LOAD ..\obj\PIR.o
LOAD ..\obj\uart.o
LOAD ..\obj\chevents.o
LOAD ..\obj\sdc.o
LOAD ..\obj\hal_queues.o
LOAD ..\obj\DS18B20.o
LOAD ..\obj\serial_lld.o
LOAD ..\obj\main.o
LOAD ..\obj\ext_lld_isr.o
LOAD ..\obj\usb.o
LOAD ..\obj\board.o
LOAD ..\obj\chdebug.o
LOAD ..\obj\hal_lld.o
LOAD ..\obj\chsys.o
LOAD ..\obj\ext_lld.o
LOAD ..\obj\ext.o
LOAD ..\obj\can.o
LOAD ..\obj\radio.o
LOAD ..\obj\DHT11.o
LOAD ..\obj\chtm.o
LOAD ..\obj\dac.o
LOAD ..\obj\chschd.o
LOAD ..\obj\iwdg_lld.o
LOAD ..\obj\cli.o
LOAD ..\obj\pal_lld.o
LOAD ..\obj\chregistry.o
LOAD ..\obj\onewire.o
LOAD ..\obj\pal.o
LOAD ..\obj\chmemcore.o
LOAD ..\obj\chcore_v6m.o
LOAD ..\obj\stm32_dma.o
LOAD ..\obj\icu_lld.o
LOAD ..\obj\adc.o
LOAD ..\obj\chmtx.o
LOAD ..\obj\i2s.o
LOAD ..\obj\shell.o
LOAD ..\obj\chprintf.o
LOAD ..\obj\gpt.o
LOAD ..\obj\rtc_lld.o
LOAD ..\obj\hal.o
LOAD ..\obj\chthreads.o
LOAD ..\obj\lcd.o
LOAD ..\obj\chcore.o
LOAD ..\obj\st_lld.o
LOAD ..\obj\chmsg.o
LOAD ..\obj\nvic.o
LOAD ..\obj\gpt_lld.o
LOAD ..\obj\serial.o
LOAD ..\obj\mmc_spi.o
LOAD ..\obj\adc_lld.o
LOAD ..\obj\uart_lld.o
LOAD ..\obj\crt0.o
LOAD ..\obj\osal.o
LOAD ..\obj\WatchDog.o
LOAD ..\obj\RGBW.o
LOAD ..\obj\chcond.o
LOAD ..\obj\chqueues.o
LOAD ..\obj\nRF24.o
LOAD ..\obj\DHT11_hal.o
START GROUP
LOAD c:/utils/gnu tools for arm/4_8-2014q3/bin/../lib/gcc/arm-none-eabi/4.8.4/armv6-m\libgcc.a
LOAD c:/utils/gnu tools for arm/4_8-2014q3/bin/../lib/gcc/arm-none-eabi/4.8.4/../../../../arm-none-eabi/lib/armv6-m\libg.a
LOAD c:/utils/gnu tools for arm/4_8-2014q3/bin/../lib/gcc/arm-none-eabi/4.8.4/../../../../arm-none-eabi/lib/armv6-m\libc.a
END GROUP
OUTPUT(ChibiOS_FloorHeater.elf elf32-littlearm)

.debug_info     0x00000000     0xd7c1
 .debug_info    0x00000000     0x3b7e C:\Users\Vera\AppData\Local\Temp\ccxEpyGP.ltrans0.ltrans.o
 .debug_info    0x00003b7e     0x39a7 C:\Users\Vera\AppData\Local\Temp\ccxEpyGP.ltrans1.ltrans.o
 .debug_info    0x00007525     0x2879 C:\Users\Vera\AppData\Local\Temp\ccxEpyGP.ltrans2.ltrans.o
 .debug_info    0x00009d9e     0x3977 C:\Users\Vera\AppData\Local\Temp\ccxEpyGP.ltrans3.ltrans.o
 .debug_info    0x0000d715       0xac ..\obj\chcoreasm_v6m.o

.debug_abbrev   0x00000000     0x16d4
 .debug_abbrev  0x00000000      0x5cf C:\Users\Vera\AppData\Local\Temp\ccxEpyGP.ltrans0.ltrans.o
 .debug_abbrev  0x000005cf      0x5ad C:\Users\Vera\AppData\Local\Temp\ccxEpyGP.ltrans1.ltrans.o
 .debug_abbrev  0x00000b7c      0x52b C:\Users\Vera\AppData\Local\Temp\ccxEpyGP.ltrans2.ltrans.o
 .debug_abbrev  0x000010a7      0x619 C:\Users\Vera\AppData\Local\Temp\ccxEpyGP.ltrans3.ltrans.o
 .debug_abbrev  0x000016c0       0x14 ..\obj\chcoreasm_v6m.o

.debug_loc      0x00000000     0x369c
 .debug_loc     0x00000000     0x13b0 C:\Users\Vera\AppData\Local\Temp\ccxEpyGP.ltrans0.ltrans.o
 .debug_loc     0x000013b0      0xe33 C:\Users\Vera\AppData\Local\Temp\ccxEpyGP.ltrans1.ltrans.o
 .debug_loc     0x000021e3      0xdbd C:\Users\Vera\AppData\Local\Temp\ccxEpyGP.ltrans2.ltrans.o
 .debug_loc     0x00002fa0      0x6fc C:\Users\Vera\AppData\Local\Temp\ccxEpyGP.ltrans3.ltrans.o

.debug_aranges  0x00000000       0xa8
 .debug_aranges
                0x00000000       0x20 C:\Users\Vera\AppData\Local\Temp\ccxEpyGP.ltrans0.ltrans.o
 .debug_aranges
                0x00000020       0x20 C:\Users\Vera\AppData\Local\Temp\ccxEpyGP.ltrans1.ltrans.o
 .debug_aranges
                0x00000040       0x20 C:\Users\Vera\AppData\Local\Temp\ccxEpyGP.ltrans2.ltrans.o
 .debug_aranges
                0x00000060       0x28 C:\Users\Vera\AppData\Local\Temp\ccxEpyGP.ltrans3.ltrans.o
 .debug_aranges
                0x00000088       0x20 ..\obj\chcoreasm_v6m.o

.debug_ranges   0x00000000     0x1010
 .debug_ranges  0x00000000      0x3e0 C:\Users\Vera\AppData\Local\Temp\ccxEpyGP.ltrans0.ltrans.o
 .debug_ranges  0x000003e0      0x428 C:\Users\Vera\AppData\Local\Temp\ccxEpyGP.ltrans1.ltrans.o
 .debug_ranges  0x00000808      0x1b0 C:\Users\Vera\AppData\Local\Temp\ccxEpyGP.ltrans2.ltrans.o
 .debug_ranges  0x000009b8      0x658 C:\Users\Vera\AppData\Local\Temp\ccxEpyGP.ltrans3.ltrans.o

.debug_line     0x00000000     0x3467
 .debug_line    0x00000000      0xdc7 C:\Users\Vera\AppData\Local\Temp\ccxEpyGP.ltrans0.ltrans.o
 .debug_line    0x00000dc7      0xc50 C:\Users\Vera\AppData\Local\Temp\ccxEpyGP.ltrans1.ltrans.o
 .debug_line    0x00001a17      0xb78 C:\Users\Vera\AppData\Local\Temp\ccxEpyGP.ltrans2.ltrans.o
 .debug_line    0x0000258f      0xe3a C:\Users\Vera\AppData\Local\Temp\ccxEpyGP.ltrans3.ltrans.o
 .debug_line    0x000033c9       0x9e ..\obj\chcoreasm_v6m.o

.debug_str      0x00000000     0x21f1
 .debug_str     0x00000000      0xe94 C:\Users\Vera\AppData\Local\Temp\ccxEpyGP.ltrans0.ltrans.o
                                0xf74 (size before relaxing)
 .debug_str     0x00000e94      0x392 C:\Users\Vera\AppData\Local\Temp\ccxEpyGP.ltrans1.ltrans.o
                                0xd0e (size before relaxing)
 .debug_str     0x00001226      0x316 C:\Users\Vera\AppData\Local\Temp\ccxEpyGP.ltrans2.ltrans.o
                                0xb52 (size before relaxing)
 .debug_str     0x0000153c      0xcb5 C:\Users\Vera\AppData\Local\Temp\ccxEpyGP.ltrans3.ltrans.o
                               0x16a3 (size before relaxing)

.comment        0x00000000       0x70
 .comment       0x00000000       0x70 C:\Users\Vera\AppData\Local\Temp\ccxEpyGP.ltrans0.ltrans.o
                                 0x71 (size before relaxing)
 .comment       0x00000000       0x71 C:\Users\Vera\AppData\Local\Temp\ccxEpyGP.ltrans1.ltrans.o
 .comment       0x00000000       0x71 C:\Users\Vera\AppData\Local\Temp\ccxEpyGP.ltrans2.ltrans.o
 .comment       0x00000000       0x71 C:\Users\Vera\AppData\Local\Temp\ccxEpyGP.ltrans3.ltrans.o

.ARM.attributes
                0x00000000       0x2f
 .ARM.attributes
                0x00000000       0x2f C:\Users\Vera\AppData\Local\Temp\ccxEpyGP.ltrans0.ltrans.o
 .ARM.attributes
                0x0000002f       0x2f C:\Users\Vera\AppData\Local\Temp\ccxEpyGP.ltrans1.ltrans.o
 .ARM.attributes
                0x0000005e       0x2f C:\Users\Vera\AppData\Local\Temp\ccxEpyGP.ltrans2.ltrans.o
 .ARM.attributes
                0x0000008d       0x2f C:\Users\Vera\AppData\Local\Temp\ccxEpyGP.ltrans3.ltrans.o
 .ARM.attributes
                0x000000bc       0x1e c:/utils/gnu tools for arm/4_8-2014q3/bin/../lib/gcc/arm-none-eabi/4.8.4/armv6-m\libgcc.a(_udivsi3.o)
 .ARM.attributes
                0x000000da       0x1e c:/utils/gnu tools for arm/4_8-2014q3/bin/../lib/gcc/arm-none-eabi/4.8.4/armv6-m\libgcc.a(_dvmd_tls.o)
 .ARM.attributes
                0x000000f8       0x2c c:/utils/gnu tools for arm/4_8-2014q3/bin/../lib/gcc/arm-none-eabi/4.8.4/../../../../arm-none-eabi/lib/armv6-m\libg.a(lib_a-memset.o)
 .ARM.attributes
                0x00000124       0x21 ..\obj\chcoreasm_v6m.o
 .ARM.attributes
                0x00000145       0x2c c:/utils/gnu tools for arm/4_8-2014q3/bin/../lib/gcc/arm-none-eabi/4.8.4/../../../../arm-none-eabi/lib/armv6-m\libg.a(lib_a-abs.o)
 .ARM.attributes
                0x00000171       0x2c c:/utils/gnu tools for arm/4_8-2014q3/bin/../lib/gcc/arm-none-eabi/4.8.4/../../../../arm-none-eabi/lib/armv6-m\libg.a(lib_a-memcpy-stub.o)

.debug_frame    0x00000000      0x910
 .debug_frame   0x00000000      0x294 C:\Users\Vera\AppData\Local\Temp\ccxEpyGP.ltrans0.ltrans.o
 .debug_frame   0x00000294      0x1ac C:\Users\Vera\AppData\Local\Temp\ccxEpyGP.ltrans1.ltrans.o
 .debug_frame   0x00000440      0x3b0 C:\Users\Vera\AppData\Local\Temp\ccxEpyGP.ltrans2.ltrans.o
 .debug_frame   0x000007f0       0x80 C:\Users\Vera\AppData\Local\Temp\ccxEpyGP.ltrans3.ltrans.o
 .debug_frame   0x00000870       0x20 c:/utils/gnu tools for arm/4_8-2014q3/bin/../lib/gcc/arm-none-eabi/4.8.4/armv6-m\libgcc.a(_udivsi3.o)
 .debug_frame   0x00000890       0x30 c:/utils/gnu tools for arm/4_8-2014q3/bin/../lib/gcc/arm-none-eabi/4.8.4/../../../../arm-none-eabi/lib/armv6-m\libg.a(lib_a-memset.o)
 .debug_frame   0x000008c0       0x20 c:/utils/gnu tools for arm/4_8-2014q3/bin/../lib/gcc/arm-none-eabi/4.8.4/../../../../arm-none-eabi/lib/armv6-m\libg.a(lib_a-abs.o)
 .debug_frame   0x000008e0       0x30 c:/utils/gnu tools for arm/4_8-2014q3/bin/../lib/gcc/arm-none-eabi/4.8.4/../../../../arm-none-eabi/lib/armv6-m\libg.a(lib_a-memcpy-stub.o)
